target datalayout = "e-m:e-p270:32:32-p271:32:32-p272:64:64-i64:64-i128:128-f80:128-n8:16:32:64-S128"
target triple = "x86_64-pc-linux-gnu"

%struct.SDL_AudioQueue = type { ptr, ptr, ptr, i64, i64, %struct.SDL_MemoryPool, %struct.SDL_MemoryPool }
%struct.SDL_MemoryPool = type { ptr, i64, i64, i64 }
%struct.SDL_AudioTrack = type { %struct.SDL_AudioSpec, ptr, i8, ptr, ptr, ptr, ptr, i64, i64, i64, [8 x i32] }
%struct.SDL_AudioSpec = type { i32, i32, i32 }

; Function Attrs: nounwind uwtable
define internal void @FreeMemoryPoolBlock(ptr noundef %0, ptr noundef %1) #0 {
  %3 = alloca ptr, align 8
  %4 = alloca ptr, align 8
  store ptr %0, ptr %3, align 8
  store ptr %1, ptr %4, align 8
  %5 = load ptr, ptr %3, align 8
  %6 = getelementptr inbounds nuw %struct.SDL_MemoryPool, ptr %5, i32 0, i32 2
  %7 = load i64, ptr %6, align 8
  %8 = load ptr, ptr %3, align 8
  %9 = getelementptr inbounds nuw %struct.SDL_MemoryPool, ptr %8, i32 0, i32 3
  %10 = load i64, ptr %9, align 8
  %11 = icmp ult i64 %7, %10
  br i1 %11, label %12, label %24

12:                                               ; preds = %2
  %13 = load ptr, ptr %3, align 8
  %14 = getelementptr inbounds nuw %struct.SDL_MemoryPool, ptr %13, i32 0, i32 0
  %15 = load ptr, ptr %14, align 8
  %16 = load ptr, ptr %4, align 8
  store ptr %15, ptr %16, align 8
  %17 = load ptr, ptr %4, align 8
  %18 = load ptr, ptr %3, align 8
  %19 = getelementptr inbounds nuw %struct.SDL_MemoryPool, ptr %18, i32 0, i32 0
  store ptr %17, ptr %19, align 8
  %20 = load ptr, ptr %3, align 8
  %21 = getelementptr inbounds nuw %struct.SDL_MemoryPool, ptr %20, i32 0, i32 2
  %22 = load i64, ptr %21, align 8
  %23 = add i64 %22, 1
  store i64 %23, ptr %21, align 8
  br label %26

24:                                               ; preds = %2
  %25 = load ptr, ptr %4, align 8
  call void @SDL_free_REAL(ptr noundef %25)
  br label %26

26:                                               ; preds = %24, %12
  ret void
}

; Function Attrs: nounwind uwtable
define internal void @DestroyAudioTrack(ptr noundef %0, ptr noundef %1) #0 {
  %3 = alloca ptr, align 8
  %4 = alloca ptr, align 8
  store ptr %0, ptr %3, align 8
  store ptr %1, ptr %4, align 8
  %5 = load ptr, ptr %4, align 8
  %6 = getelementptr inbounds nuw %struct.SDL_AudioTrack, ptr %5, i32 0, i32 5
  %7 = load ptr, ptr %6, align 8
  %8 = load ptr, ptr %4, align 8
  %9 = getelementptr inbounds nuw %struct.SDL_AudioTrack, ptr %8, i32 0, i32 4
  %10 = load ptr, ptr %9, align 8
  %11 = load ptr, ptr %4, align 8
  %12 = getelementptr inbounds nuw %struct.SDL_AudioTrack, ptr %11, i32 0, i32 6
  %13 = load ptr, ptr %12, align 8
  %14 = load ptr, ptr %4, align 8
  %15 = getelementptr inbounds nuw %struct.SDL_AudioTrack, ptr %14, i32 0, i32 9
  %16 = load i64, ptr %15, align 8
  %17 = trunc i64 %16 to i32
  call void %7(ptr noundef %10, ptr noundef %13, i32 noundef %17)
  %18 = load ptr, ptr %3, align 8
  %19 = getelementptr inbounds nuw %struct.SDL_AudioQueue, ptr %18, i32 0, i32 5
  %20 = load ptr, ptr %4, align 8
  call void @FreeMemoryPoolBlock(ptr noundef %19, ptr noundef %20)
  ret void
}

; Function Attrs: nounwind uwtable
define hidden void @SDL_PopAudioQueueHead(ptr noundef %0) #0 {
  %2 = alloca ptr, align 8
  %3 = alloca ptr, align 8
  %4 = alloca i8, align 1
  %5 = alloca ptr, align 8
  %6 = alloca i32, align 4
  store ptr %0, ptr %2, align 8
  call void @llvm.lifetime.start.p0(i64 8, ptr %3) #6
  %7 = load ptr, ptr %2, align 8
  %8 = getelementptr inbounds nuw %struct.SDL_AudioQueue, ptr %7, i32 0, i32 0
  %9 = load ptr, ptr %8, align 8
  store ptr %9, ptr %3, align 8
  br label %10

10:                                               ; preds = %28, %1
  call void @llvm.lifetime.start.p0(i64 1, ptr %4) #6
  %11 = load ptr, ptr %3, align 8
  %12 = getelementptr inbounds nuw %struct.SDL_AudioTrack, ptr %11, i32 0, i32 2
  %13 = load i8, ptr %12, align 8, !range !7, !noundef !8
  %14 = trunc i8 %13 to i1
  %15 = zext i1 %14 to i8
  store i8 %15, ptr %4, align 1
  call void @llvm.lifetime.start.p0(i64 8, ptr %5) #6
  %16 = load ptr, ptr %3, align 8
  %17 = getelementptr inbounds nuw %struct.SDL_AudioTrack, ptr %16, i32 0, i32 3
  %18 = load ptr, ptr %17, align 8
  store ptr %18, ptr %5, align 8
  %19 = load ptr, ptr %2, align 8
  %20 = load ptr, ptr %3, align 8
  call void @DestroyAudioTrack(ptr noundef %19, ptr noundef %20)
  %21 = load ptr, ptr %5, align 8
  store ptr %21, ptr %3, align 8
  %22 = load i8, ptr %4, align 1, !range !7, !noundef !8
  %23 = trunc i8 %22 to i1
  br i1 %23, label %24, label %25

24:                                               ; preds = %10
  store i32 2, ptr %6, align 4
  br label %26

25:                                               ; preds = %10
  store i32 0, ptr %6, align 4
  br label %26

26:                                               ; preds = %25, %24
  call void @llvm.lifetime.end.p0(i64 8, ptr %5) #6
  call void @llvm.lifetime.end.p0(i64 1, ptr %4) #6
  %27 = load i32, ptr %6, align 4
  switch i32 %27, label %41 [
    i32 0, label %28
    i32 2, label %29
  ]

28:                                               ; preds = %26
  br label %10

29:                                               ; preds = %26
  %30 = load ptr, ptr %3, align 8
  %31 = load ptr, ptr %2, align 8
  %32 = getelementptr inbounds nuw %struct.SDL_AudioQueue, ptr %31, i32 0, i32 0
  store ptr %30, ptr %32, align 8
  %33 = load ptr, ptr %2, align 8
  %34 = getelementptr inbounds nuw %struct.SDL_AudioQueue, ptr %33, i32 0, i32 3
  store i64 0, ptr %34, align 8
  %35 = load ptr, ptr %3, align 8
  %36 = icmp ne ptr %35, null
  br i1 %36, label %40, label %37

37:                                               ; preds = %29
  %38 = load ptr, ptr %2, align 8
  %39 = getelementptr inbounds nuw %struct.SDL_AudioQueue, ptr %38, i32 0, i32 1
  store ptr null, ptr %39, align 8
  br label %40

40:                                               ; preds = %37, %29
  call void @llvm.lifetime.end.p0(i64 8, ptr %3) #6
  ret void

41:                                               ; preds = %26
  unreachable
}