; Function Attrs: nounwind uwtable
define hidden void @SDL_PopAudioQueueHead(ptr noundef captures(none) %0) local_unnamed_addr #0 {
  %2 = load ptr, ptr %0, align 8
  %3 = getelementptr inbounds nuw i8, ptr %0, i64 56
  %4 = getelementptr inbounds nuw i8, ptr %0, i64 64
  %5 = getelementptr inbounds nuw i8, ptr %0, i64 40
  br label %6

6:                                                ; preds = %DestroyAudioTrack.exit, %1
  %.012 = phi ptr [ %2, %1 ], [ %11, %DestroyAudioTrack.exit ]
  %7 = getelementptr inbounds nuw i8, ptr %.012, i64 24
  %8 = load i8, ptr %7, align 8, !range !7, !noundef !8
  %9 = trunc nuw i8 %8 to i1
  %10 = getelementptr inbounds nuw i8, ptr %.012, i64 32
  %11 = load ptr, ptr %10, align 8
  %12 = getelementptr inbounds nuw i8, ptr %.012, i64 48
  %13 = load ptr, ptr %12, align 8
  %14 = getelementptr inbounds nuw i8, ptr %.012, i64 40
  %15 = load ptr, ptr %14, align 8
  %16 = getelementptr inbounds nuw i8, ptr %.012, i64 56
  %17 = load ptr, ptr %16, align 8
  %18 = getelementptr inbounds nuw i8, ptr %.012, i64 80
  %19 = load i64, ptr %18, align 8
  %20 = trunc i64 %19 to i32
  tail call void %13(ptr noundef %15, ptr noundef %17, i32 noundef %20) #10
  %21 = load i64, ptr %3, align 8
  %22 = load i64, ptr %4, align 8
  %23 = icmp ult i64 %21, %22
  br i1 %23, label %24, label %28

24:                                               ; preds = %6
  %25 = load ptr, ptr %5, align 8
  store ptr %25, ptr %.012, align 8
  store ptr %.012, ptr %5, align 8
  %26 = load i64, ptr %3, align 8
  %27 = add i64 %26, 1
  store i64 %27, ptr %3, align 8
  br label %DestroyAudioTrack.exit

28:                                               ; preds = %6
  tail call void @SDL_free_REAL(ptr noundef nonnull %.012) #10
  br label %DestroyAudioTrack.exit

DestroyAudioTrack.exit:                           ; preds = %24, %28
  br i1 %9, label %29, label %6

29:                                               ; preds = %DestroyAudioTrack.exit
  store ptr %11, ptr %0, align 8
  %30 = getelementptr inbounds nuw i8, ptr %0, i64 24
  store i64 0, ptr %30, align 8
  %.not = icmp eq ptr %11, null
  br i1 %.not, label %31, label %33

31:                                               ; preds = %29
  %32 = getelementptr inbounds nuw i8, ptr %0, i64 8
  store ptr null, ptr %32, align 8
  br label %33

33:                                               ; preds = %31, %29
  ret void
}